ccopy_reg
_reconstructor
p0
(csklearn.preprocessing.label
LabelBinarizer
p1
c__builtin__
object
p2
Ntp3
Rp4
(dp5
S'neg_label'
p6
I0
sS'sparse_input_'
p7
I00
sS'sparse_output'
p8
I00
sS'classes_'
p9
cnumpy.core.multiarray
_reconstruct
p10
(cnumpy
ndarray
p11
(I0
tp12
S'b'
p13
tp14
Rp15
(I1
(I5
tp16
cnumpy
dtype
p17
(S'S10'
p18
I0
I1
tp19
Rp20
(I3
S'|'
p21
NNNI10
I1
I0
tp22
bI00
S'bulbasaur\x00charmandermewtwo\x00\x00\x00\x00pikachu\x00\x00\x00squirtle\x00\x00'
p23
tp24
bsS'y_type_'
p25
S'multiclass'
p26
sS'pos_label'
p27
I1
sS'_sklearn_version'
p28
S'0.20.0'
p29
sb.